target datalayout = "e-m:e-p270:32:32-p271:32:32-p272:64:64-i64:64-i128:128-f80:128-n8:16:32:64-S128"
target triple = "x86_64-pc-linux-gnu"

%"class.google::LogMessageFatal" = type { %"class.google::LogMessage" }
%"class.google::LogMessage" = type { ptr, ptr }
%"class.folly::AsyncUDPSocket" = type { %"class.folly::EventHandler", i16, ptr, ptr, %"class.folly::SocketAddress", %"struct.folly::NetworkSocket", i32, %"class.folly::SocketAddress", %"class.folly::SocketAddress", i8, i8, i8, i8, i8, i8, i32, i32, i32, %"class.folly::Optional.13", %"class.folly::Optional.13", %"class.folly::Optional.15", %"class.folly::Optional.13", ptr, i8, i8, i64, i64, i32, %"class.std::unordered_map", %"class.folly::Function", %"class.std::map", %"class.std::map", ptr, %"class.std::map.26", [8 x i8], %"class.folly::Function.31", %"class.folly::netops::DispatcherContainer" }
%"class.folly::EventHandler" = type { ptr, %"class.folly::EventBaseEvent", ptr }
%"class.folly::EventBaseEvent" = type { %struct.event, ptr, ptr, ptr, %"struct.folly::EventCallback" }
%struct.event = type { %struct.event_callback, %union.anon.2, i32, ptr, %union.anon.4, i16, i16, %struct.timeval }
%struct.event_callback = type { %struct.anon, i16, i8, i8, %union.anon.1, ptr }
%struct.anon = type { ptr, ptr }
%union.anon.1 = type { ptr }
%union.anon.2 = type { %struct.anon.3 }
%struct.anon.3 = type { ptr, ptr }
%union.anon.4 = type { %struct.anon.5 }
%struct.anon.5 = type { %struct.anon.6, %struct.timeval }
%struct.anon.6 = type { ptr, ptr }
%struct.timeval = type { i64, i64 }
%"struct.folly::EventCallback" = type { i32, %union.anon.9 }
%union.anon.9 = type { ptr }
%"struct.folly::NetworkSocket" = type { i32 }
%"class.folly::SocketAddress" = type <{ %"union.folly::SocketAddress::AddrStorage", i16, i8, [5 x i8] }>
%"union.folly::SocketAddress::AddrStorage" = type { %"struct.folly::SocketAddress::ExternalUnixAddr", [8 x i8] }
%"struct.folly::SocketAddress::ExternalUnixAddr" = type { ptr, i32 }
%"class.folly::Optional.15" = type { %"struct.folly::Optional<folly::AsyncUDPSocket::TXTime>::StorageTriviallyDestructible" }
%"struct.folly::Optional<folly::AsyncUDPSocket::TXTime>::StorageTriviallyDestructible" = type { %union.anon.16, i8, [3 x i8] }
%union.anon.16 = type { %"struct.folly::AsyncUDPSocket::TXTime" }
%"struct.folly::AsyncUDPSocket::TXTime" = type <{ i32, i8, [3 x i8] }>
%"class.folly::Optional.13" = type { %"struct.folly::Optional<int>::StorageTriviallyDestructible" }
%"struct.folly::Optional<int>::StorageTriviallyDestructible" = type <{ %union.anon.14, i8, [3 x i8] }>
%union.anon.14 = type { i32 }
%"class.std::unordered_map" = type { %"class.std::_Hashtable" }
%"class.std::_Hashtable" = type { ptr, i64, %"struct.std::__detail::_Hash_node_base", i64, %"struct.std::__detail::_Prime_rehash_policy", ptr }
%"struct.std::__detail::_Hash_node_base" = type { ptr }
%"struct.std::__detail::_Prime_rehash_policy" = type { float, i64 }
%"class.folly::Function" = type { %"union.folly::detail::function::Data", ptr, ptr }
%"union.folly::detail::function::Data" = type { %"struct.folly::detail::function::Data::BigTrivialLayout", [24 x i8] }
%"struct.folly::detail::function::Data::BigTrivialLayout" = type { ptr, i64, i64 }
%"class.std::map" = type { %"class.std::_Rb_tree" }
%"class.std::_Rb_tree" = type { %"struct.std::_Rb_tree<folly::SocketOptionKey, std::pair<const folly::SocketOptionKey, int>, std::_Select1st<std::pair<const folly::SocketOptionKey, int>>, std::less<folly::SocketOptionKey>>::_Rb_tree_impl" }
%"struct.std::_Rb_tree<folly::SocketOptionKey, std::pair<const folly::SocketOptionKey, int>, std::_Select1st<std::pair<const folly::SocketOptionKey, int>>, std::less<folly::SocketOptionKey>>::_Rb_tree_impl" = type { [8 x i8], %"struct.std::_Rb_tree_header" }
%"struct.std::_Rb_tree_header" = type { %"struct.std::_Rb_tree_node_base", i64 }
%"struct.std::_Rb_tree_node_base" = type { i32, ptr, ptr, ptr }
%"class.std::map.26" = type { %"class.std::_Rb_tree.27" }
%"class.std::_Rb_tree.27" = type { %"struct.std::_Rb_tree<folly::SocketOptionKey, std::pair<const folly::SocketOptionKey, std::__cxx11::basic_string<char>>, std::_Select1st<std::pair<const folly::SocketOptionKey, std::__cxx11::basic_string<char>>>, std::less<folly::SocketOptionKey>>::_Rb_tree_impl" }
%"struct.std::_Rb_tree<folly::SocketOptionKey, std::pair<const folly::SocketOptionKey, std::__cxx11::basic_string<char>>, std::_Select1st<std::pair<const folly::SocketOptionKey, std::__cxx11::basic_string<char>>>, std::less<folly::SocketOptionKey>>::_Rb_tree_impl" = type { [8 x i8], %"struct.std::_Rb_tree_header" }
%"class.folly::Function.31" = type { %"union.folly::detail::function::Data", ptr, ptr }
%"class.folly::netops::DispatcherContainer" = type { %"class.std::shared_ptr" }
%"class.std::shared_ptr" = type { %"class.std::__shared_ptr" }
%"class.std::__shared_ptr" = type { ptr, %"class.std::__shared_count" }
%"class.std::__shared_count" = type { ptr }
%"struct.google::CheckOpString" = type { ptr }

@.str.35 = private unnamed_addr constant [23 x i8] c"NetworkSocket() == fd_\00", align 1
@.str.36 = private unnamed_addr constant [123 x i8] c"generated/home/dtcxzyw/WorkSpace/Projects/compilers/llvm-opt-benchmark/bench/folly/folly/folly/io/async/AsyncUDPSocket.cpp\00", align 1
@.str.37 = private unnamed_addr constant [28 x i8] c"Already bound to another FD\00", align 1

; Function Attrs: mustprogress nounwind uwtable
define linkonce_odr noundef zeroext i1 @_ZN5follyeqERKNS_13NetworkSocketES2_(ptr noundef nonnull align 4 dereferenceable(4) %0, ptr noundef nonnull align 4 dereferenceable(4) %1) #0 comdat {
  %3 = alloca ptr, align 8
  %4 = alloca ptr, align 8
  store ptr %0, ptr %3, align 8, !tbaa !203
  store ptr %1, ptr %4, align 8, !tbaa !203
  %5 = load ptr, ptr %3, align 8, !tbaa !203
  %6 = getelementptr inbounds nuw %"struct.folly::NetworkSocket", ptr %5, i32 0, i32 0
  %7 = load i32, ptr %6, align 4, !tbaa !205
  %8 = load ptr, ptr %4, align 8, !tbaa !203
  %9 = getelementptr inbounds nuw %"struct.folly::NetworkSocket", ptr %8, i32 0, i32 0
  %10 = load i32, ptr %9, align 4, !tbaa !205
  %11 = icmp eq i32 %7, %10
  ret i1 %11
}

; Function Attrs: mustprogress nounwind uwtable
define linkonce_odr noundef zeroext i1 @_ZNK6google13CheckOpStringcvbEv(ptr noundef nonnull align 8 dereferenceable(8) %0) #0 comdat align 2 {
  %2 = alloca ptr, align 8
  store ptr %0, ptr %2, align 8, !tbaa !436
  %3 = load ptr, ptr %2, align 8
  %4 = getelementptr inbounds nuw %"struct.google::CheckOpString", ptr %3, i32 0, i32 0
  %5 = load ptr, ptr %4, align 8, !tbaa !438
  %6 = icmp ne ptr %5, null
  %7 = zext i1 %6 to i64
  %8 = call i64 @llvm.expect.i64(i64 %7, i64 0)
  %9 = icmp ne i64 %8, 0
  ret i1 %9
}

; Function Attrs: mustprogress nounwind uwtable
define linkonce_odr void @_ZN6google13CheckOpStringC2EPNSt7__cxx1112basic_stringIcSt11char_traitsIcESaIcEEE(ptr noundef nonnull align 8 dereferenceable(8) %0, ptr noundef %1) unnamed_addr #0 comdat align 2 {
  %3 = alloca ptr, align 8
  %4 = alloca ptr, align 8
  store ptr %0, ptr %3, align 8, !tbaa !436
  store ptr %1, ptr %4, align 8, !tbaa !75
  %5 = load ptr, ptr %3, align 8
  %6 = getelementptr inbounds nuw %"struct.google::CheckOpString", ptr %5, i32 0, i32 0
  %7 = load ptr, ptr %4, align 8, !tbaa !75
  store ptr %7, ptr %6, align 8, !tbaa !438
  ret void
}

; Function Attrs: inlinehint mustprogress uwtable
define linkonce_odr noundef ptr @_ZN6google12Check_EQImplIN5folly13NetworkSocketES2_EEPNSt7__cxx1112basic_stringIcSt11char_traitsIcESaIcEEERKT_RKT0_PKc(ptr noundef nonnull align 4 dereferenceable(4) %0, ptr noundef nonnull align 4 dereferenceable(4) %1, ptr noundef %2) #18 comdat {
  %4 = alloca ptr, align 8
  %5 = alloca ptr, align 8
  %6 = alloca ptr, align 8
  %7 = alloca ptr, align 8
  store ptr %0, ptr %5, align 8, !tbaa !203
  store ptr %1, ptr %6, align 8, !tbaa !203
  store ptr %2, ptr %7, align 8, !tbaa !137
  %8 = load ptr, ptr %5, align 8, !tbaa !203
  %9 = load ptr, ptr %6, align 8, !tbaa !203
  %10 = call noundef zeroext i1 @_ZN5follyeqERKNS_13NetworkSocketES2_(ptr noundef nonnull align 4 dereferenceable(4) %8, ptr noundef nonnull align 4 dereferenceable(4) %9) #25
  %11 = xor i1 %10, true
  %12 = xor i1 %11, true
  %13 = zext i1 %12 to i64
  %14 = call i64 @llvm.expect.i64(i64 %13, i64 1)
  %15 = icmp ne i64 %14, 0
  br i1 %15, label %16, label %17

16:                                               ; preds = %3
  store ptr null, ptr %4, align 8
  br label %22

17:                                               ; preds = %3
  %18 = load ptr, ptr %5, align 8, !tbaa !203
  %19 = load ptr, ptr %6, align 8, !tbaa !203
  %20 = load ptr, ptr %7, align 8, !tbaa !137
  %21 = call noundef ptr @_ZN6google17MakeCheckOpStringIN5folly13NetworkSocketES2_EEPNSt7__cxx1112basic_stringIcSt11char_traitsIcESaIcEEERKT_RKT0_PKc(ptr noundef nonnull align 4 dereferenceable(4) %18, ptr noundef nonnull align 4 dereferenceable(4) %19, ptr noundef %20)
  store ptr %21, ptr %4, align 8
  br label %22

22:                                               ; preds = %17, %16
  %23 = load ptr, ptr %4, align 8
  ret ptr %23
}

; Function Attrs: inlinehint mustprogress nounwind uwtable
define linkonce_odr noundef nonnull align 4 dereferenceable(4) ptr @_ZN6google21GetReferenceableValueIN5folly13NetworkSocketEEERKT_S5_(ptr noundef nonnull align 4 dereferenceable(4) %0) #4 comdat {
  %2 = alloca ptr, align 8
  store ptr %0, ptr %2, align 8, !tbaa !203
  %3 = load ptr, ptr %2, align 8, !tbaa !203
  ret ptr %3
}

; Function Attrs: mustprogress nounwind uwtable
define linkonce_odr void @_ZN5folly13NetworkSocketC2Ev(ptr noundef nonnull align 4 dereferenceable(4) %0) unnamed_addr #0 comdat align 2 {
  %2 = alloca ptr, align 8
  store ptr %0, ptr %2, align 8, !tbaa !203
  %3 = load ptr, ptr %2, align 8
  %4 = getelementptr inbounds nuw %"struct.folly::NetworkSocket", ptr %3, i32 0, i32 0
  store i32 -1, ptr %4, align 4, !tbaa !205
  ret void
}

; Function Attrs: mustprogress uwtable
define void @_ZN5folly14AsyncUDPSocket5setFDENS_13NetworkSocketENS0_11FDOwnershipE(ptr noundef nonnull align 16 dereferenceable(768) %0, i32 %1, i32 noundef %2) unnamed_addr #1 align 2 personality ptr @__gxx_personality_v0 {
  %4 = alloca %"struct.folly::NetworkSocket", align 4
  %5 = alloca ptr, align 8
  %6 = alloca i32, align 4
  %7 = alloca %"struct.google::CheckOpString", align 8
  %8 = alloca %"struct.folly::NetworkSocket", align 4
  %9 = alloca %"class.google::LogMessageFatal", align 8
  %10 = alloca ptr, align 8
  %11 = alloca i32, align 4
  %12 = alloca %"struct.folly::NetworkSocket", align 4
  %13 = alloca %"struct.folly::NetworkSocket", align 4
  %14 = getelementptr inbounds nuw %"struct.folly::NetworkSocket", ptr %4, i32 0, i32 0
  store i32 %1, ptr %14, align 4
  store ptr %0, ptr %5, align 8, !tbaa !7
  store i32 %2, ptr %6, align 4, !tbaa !81
  %15 = load ptr, ptr %5, align 8
  br label %16

16:                                               ; preds = %3
  call void @llvm.lifetime.start.p0(i64 8, ptr %7) #25
  call void @llvm.lifetime.start.p0(i64 4, ptr %8) #25
  call void @_ZN5folly13NetworkSocketC2Ev(ptr noundef nonnull align 4 dereferenceable(4) %8)
  %17 = call noundef nonnull align 4 dereferenceable(4) ptr @_ZN6google21GetReferenceableValueIN5folly13NetworkSocketEEERKT_S5_(ptr noundef nonnull align 4 dereferenceable(4) %8)
  %18 = getelementptr inbounds nuw %"class.folly::AsyncUDPSocket", ptr %15, i32 0, i32 5
  %19 = call noundef nonnull align 4 dereferenceable(4) ptr @_ZN6google21GetReferenceableValueIN5folly13NetworkSocketEEERKT_S5_(ptr noundef nonnull align 4 dereferenceable(4) %18)
  %20 = call noundef ptr @_ZN6google12Check_EQImplIN5folly13NetworkSocketES2_EEPNSt7__cxx1112basic_stringIcSt11char_traitsIcESaIcEEERKT_RKT0_PKc(ptr noundef nonnull align 4 dereferenceable(4) %17, ptr noundef nonnull align 4 dereferenceable(4) %19, ptr noundef @.str.35)
  call void @_ZN6google13CheckOpStringC2EPNSt7__cxx1112basic_stringIcSt11char_traitsIcESaIcEEE(ptr noundef nonnull align 8 dereferenceable(8) %7, ptr noundef %20)
  call void @llvm.lifetime.end.p0(i64 4, ptr %8) #25
  %21 = call noundef zeroext i1 @_ZNK6google13CheckOpStringcvbEv(ptr noundef nonnull align 8 dereferenceable(8) %7)
  br i1 %21, label %23, label %22

22:                                               ; preds = %16
  call void @llvm.lifetime.end.p0(i64 8, ptr %7) #25
  br label %33

23:                                               ; preds = %16
  call void @llvm.lifetime.start.p0(i64 16, ptr %9) #25
  call void @_ZN6google15LogMessageFatalC1EPKciRKNS_13CheckOpStringE(ptr noundef nonnull align 8 dereferenceable(16) %9, ptr noundef @.str.36, i32 noundef 458, ptr noundef nonnull align 8 dereferenceable(8) %7)
  %24 = invoke noundef nonnull align 8 dereferenceable(8) ptr @_ZN6google10LogMessage6streamEv(ptr noundef nonnull align 8 dereferenceable(16) %9)
          to label %25 unwind label %28

25:                                               ; preds = %23
  %26 = invoke noundef nonnull align 8 dereferenceable(8) ptr @_ZStlsISt11char_traitsIcEERSt13basic_ostreamIcT_ES5_PKc(ptr noundef nonnull align 8 dereferenceable(8) %24, ptr noundef @.str.37)
          to label %27 unwind label %28

27:                                               ; preds = %25
  call void @_ZN6google15LogMessageFatalD1Ev(ptr noundef nonnull align 8 dereferenceable(16) %9) #31
  unreachable

28:                                               ; preds = %25, %23
  %29 = landingpad { ptr, i32 }
          cleanup
  %30 = extractvalue { ptr, i32 } %29, 0
  store ptr %30, ptr %10, align 8
  %31 = extractvalue { ptr, i32 } %29, 1
  store i32 %31, ptr %11, align 4
  call void @_ZN6google15LogMessageFatalD1Ev(ptr noundef nonnull align 8 dereferenceable(16) %9) #31
  unreachable

32:                                               ; No predecessors!
  call void @llvm.lifetime.end.p0(i64 16, ptr %9) #25
  call void @llvm.lifetime.end.p0(i64 8, ptr %7) #25
  br label %44

33:                                               ; preds = %22
  %34 = getelementptr inbounds nuw %"class.folly::AsyncUDPSocket", ptr %15, i32 0, i32 5
  call void @llvm.memcpy.p0.p0.i64(ptr align 16 %34, ptr align 4 %4, i64 4, i1 false), !tbaa.struct !77
  %35 = load i32, ptr %6, align 4, !tbaa !81
  %36 = getelementptr inbounds nuw %"class.folly::AsyncUDPSocket", ptr %15, i32 0, i32 6
  store i32 %35, ptr %36, align 4, !tbaa !82
  %37 = getelementptr inbounds nuw %"class.folly::AsyncUDPSocket", ptr %15, i32 0, i32 5
  call void @llvm.memcpy.p0.p0.i64(ptr align 4 %12, ptr align 16 %37, i64 4, i1 false), !tbaa.struct !77
  %38 = getelementptr inbounds nuw %"struct.folly::NetworkSocket", ptr %12, i32 0, i32 0
  %39 = load i32, ptr %38, align 4
  call void @_ZN5folly12EventHandler15changeHandlerFDENS_13NetworkSocketE(ptr noundef nonnull align 8 dereferenceable(184) %15, i32 %39)
  %40 = getelementptr inbounds nuw %"class.folly::AsyncUDPSocket", ptr %15, i32 0, i32 4
  %41 = getelementptr inbounds nuw %"class.folly::AsyncUDPSocket", ptr %15, i32 0, i32 5
  call void @llvm.memcpy.p0.p0.i64(ptr align 4 %13, ptr align 16 %41, i64 4, i1 false), !tbaa.struct !77
  %42 = getelementptr inbounds nuw %"struct.folly::NetworkSocket", ptr %13, i32 0, i32 0
  %43 = load i32, ptr %42, align 4
  call void @_ZN5folly13SocketAddress19setFromLocalAddressENS_13NetworkSocketE(ptr noundef nonnull align 8 dereferenceable(27) %40, i32 %43)
  ret void

44:                                               ; preds = %32
  %45 = load ptr, ptr %10, align 8
  %46 = load i32, ptr %11, align 4
  %47 = insertvalue { ptr, i32 } poison, ptr %45, 0
  %48 = insertvalue { ptr, i32 } %47, i32 %46, 1
  resume { ptr, i32 } %48
}