; Function Attrs: mustprogress uwtable
define void @_ZN5folly14AsyncUDPSocket5setFDENS_13NetworkSocketENS0_11FDOwnershipE(ptr noundef nonnull align 16 dereferenceable(768) %0, i32 %1, i32 noundef %2) unnamed_addr #1 align 2 personality ptr @__gxx_personality_v0 {
  %4 = alloca %"struct.google::CheckOpString", align 8
  %5 = alloca %"struct.folly::NetworkSocket", align 4
  %6 = alloca %"class.google::LogMessageFatal", align 8
  call void @llvm.lifetime.start.p0(i64 8, ptr nonnull %4) #36
  call void @llvm.lifetime.start.p0(i64 4, ptr nonnull %5) #36
  store i32 -1, ptr %5, align 4, !tbaa !7
  %7 = getelementptr inbounds nuw i8, ptr %0, i64 240
  %8 = load i32, ptr %7, align 16, !tbaa !7
  %9 = icmp eq i32 %8, -1
  br i1 %9, label %_ZN6google12Check_EQImplIN5folly13NetworkSocketES2_EEPNSt7__cxx1112basic_stringIcSt11char_traitsIcESaIcEEERKT_RKT0_PKc.exit.thread, label %_ZN6google12Check_EQImplIN5folly13NetworkSocketES2_EEPNSt7__cxx1112basic_stringIcSt11char_traitsIcESaIcEEERKT_RKT0_PKc.exit, !prof !103

_ZN6google12Check_EQImplIN5folly13NetworkSocketES2_EEPNSt7__cxx1112basic_stringIcSt11char_traitsIcESaIcEEERKT_RKT0_PKc.exit.thread: ; preds = %3
  call void @llvm.lifetime.end.p0(i64 4, ptr nonnull %5) #36
  br label %11

_ZN6google12Check_EQImplIN5folly13NetworkSocketES2_EEPNSt7__cxx1112basic_stringIcSt11char_traitsIcESaIcEEERKT_RKT0_PKc.exit: ; preds = %3
  %10 = call noundef ptr @_ZN6google17MakeCheckOpStringIN5folly13NetworkSocketES2_EEPNSt7__cxx1112basic_stringIcSt11char_traitsIcESaIcEEERKT_RKT0_PKc(ptr noundef nonnull align 4 dereferenceable(4) %5, ptr noundef nonnull align 4 dereferenceable(4) %7, ptr noundef nonnull @.str.35)
  store ptr %10, ptr %4, align 8, !tbaa !13
  call void @llvm.lifetime.end.p0(i64 4, ptr nonnull %5) #36
  %.not = icmp eq ptr %10, null
  br i1 %.not, label %11, label %14

11:                                               ; preds = %_ZN6google12Check_EQImplIN5folly13NetworkSocketES2_EEPNSt7__cxx1112basic_stringIcSt11char_traitsIcESaIcEEERKT_RKT0_PKc.exit.thread, %_ZN6google12Check_EQImplIN5folly13NetworkSocketES2_EEPNSt7__cxx1112basic_stringIcSt11char_traitsIcESaIcEEERKT_RKT0_PKc.exit
  call void @llvm.lifetime.end.p0(i64 8, ptr nonnull %4) #36
  store i32 %1, ptr %7, align 16, !tbaa !34
  %12 = getelementptr inbounds nuw i8, ptr %0, i64 244
  store i32 %2, ptr %12, align 4, !tbaa !104
  call void @_ZN5folly12EventHandler15changeHandlerFDENS_13NetworkSocketE(ptr noundef nonnull align 8 dereferenceable(184) %0, i32 %1)
  %13 = getelementptr inbounds nuw i8, ptr %0, i64 208
  %.sroa.0.0.copyload = load i32, ptr %7, align 16, !tbaa !34
  call void @_ZN5folly13SocketAddress19setFromLocalAddressENS_13NetworkSocketE(ptr noundef nonnull align 8 dereferenceable(27) %13, i32 %.sroa.0.0.copyload)
  ret void

14:                                               ; preds = %_ZN6google12Check_EQImplIN5folly13NetworkSocketES2_EEPNSt7__cxx1112basic_stringIcSt11char_traitsIcESaIcEEERKT_RKT0_PKc.exit
  call void @llvm.lifetime.start.p0(i64 16, ptr nonnull %6) #36
  call void @_ZN6google15LogMessageFatalC1EPKciRKNS_13CheckOpStringE(ptr noundef nonnull align 8 dereferenceable(16) %6, ptr noundef nonnull @.str.36, i32 noundef 458, ptr noundef nonnull align 8 dereferenceable(8) %4)
  %15 = invoke noundef nonnull align 8 dereferenceable(8) ptr @_ZN6google10LogMessage6streamEv(ptr noundef nonnull align 8 dereferenceable(16) %6)
          to label %16 unwind label %19

16:                                               ; preds = %14
  %17 = invoke noundef nonnull align 8 dereferenceable(8) ptr @_ZStlsISt11char_traitsIcEERSt13basic_ostreamIcT_ES5_PKc(ptr noundef nonnull align 8 dereferenceable(8) %15, ptr noundef nonnull @.str.37)
          to label %18 unwind label %19

18:                                               ; preds = %16
  call void @_ZN6google15LogMessageFatalD1Ev(ptr noundef nonnull align 8 dereferenceable(16) %6) #38
  unreachable

19:                                               ; preds = %16, %14
  %20 = landingpad { ptr, i32 }
          cleanup
  call void @_ZN6google15LogMessageFatalD1Ev(ptr noundef nonnull align 8 dereferenceable(16) %6) #38
  unreachable
}